target datalayout = "e-m:e-p270:32:32-p271:32:32-p272:64:64-i64:64-i128:128-f80:128-n8:16:32:64-S128"
target triple = "x86_64-pc-linux-gnu"

%struct.H5F_sfile_node_t = type { ptr, ptr }

@H5F_init_g = external global i8, align 1
@H5_libterm_g = external global i8, align 1
@.str = private unnamed_addr constant [102 x i8] c"generated/home/dtcxzyw/WorkSpace/Projects/compilers/llvm-opt-benchmark/bench/hdf5/hdf5/src/H5Fsfile.c\00", align 1
@H5F_sfile_head_s = internal global ptr null, align 8
@__func__.H5F__sfile_remove = private unnamed_addr constant [18 x i8] c"H5F__sfile_remove\00", align 1
@H5E_FILE_g = external global i64, align 8
@H5E_NOTFOUND_g = external global i64, align 8
@.str.2 = private unnamed_addr constant [28 x i8] c"can't find shared file info\00", align 1
@H5_H5F_sfile_node_t_reg_free_list = internal global { i8, [3 x i8], i32, i32, [4 x i8], ptr, i64, ptr } { i8 0, [3 x i8] zeroinitializer, i32 0, i32 0, [4 x i8] zeroinitializer, ptr @.str.3, i64 16, ptr null }, align 8

; Function Attrs: nounwind uwtable
define i32 @H5F__sfile_remove(ptr noundef %0) #0 {
  %2 = alloca ptr, align 8
  %3 = alloca ptr, align 8
  %4 = alloca ptr, align 8
  %5 = alloca i32, align 4
  %6 = alloca i8, align 1
  store ptr %0, ptr %2, align 8, !tbaa !11
  call void @llvm.lifetime.start.p0(i64 8, ptr %3) #4
  call void @llvm.lifetime.start.p0(i64 8, ptr %4) #4
  call void @llvm.lifetime.start.p0(i64 4, ptr %5) #4
  store i32 0, ptr %5, align 4, !tbaa !3
  call void @llvm.lifetime.start.p0(i64 1, ptr %6) #4
  store i8 0, ptr %6, align 1, !tbaa !7
  %7 = load i8, ptr @H5F_init_g, align 1, !tbaa !7, !range !9, !noundef !10
  %8 = trunc i8 %7 to i1
  br i1 %8, label %13, label %9

9:                                                ; preds = %1
  %10 = load i8, ptr @H5_libterm_g, align 1, !tbaa !7, !range !9, !noundef !10
  %11 = trunc i8 %10 to i1
  %12 = xor i1 %11, true
  br label %13

13:                                               ; preds = %9, %1
  %14 = phi i1 [ true, %1 ], [ %12, %9 ]
  %15 = xor i1 %14, true
  %16 = xor i1 %15, true
  %17 = zext i1 %16 to i32
  %18 = sext i32 %17 to i64
  %19 = call i64 @llvm.expect.i64(i64 %18, i64 1)
  %20 = icmp ne i64 %19, 0
  br i1 %20, label %21, label %78

21:                                               ; preds = %13
  store ptr null, ptr %4, align 8, !tbaa !14
  %22 = load ptr, ptr @H5F_sfile_head_s, align 8, !tbaa !14
  store ptr %22, ptr %3, align 8, !tbaa !14
  br label %23

23:                                               ; preds = %34, %21
  %24 = load ptr, ptr %3, align 8, !tbaa !14
  %25 = icmp ne ptr %24, null
  br i1 %25, label %26, label %32

26:                                               ; preds = %23
  %27 = load ptr, ptr %3, align 8, !tbaa !14
  %28 = getelementptr inbounds nuw %struct.H5F_sfile_node_t, ptr %27, i32 0, i32 0
  %29 = load ptr, ptr %28, align 8, !tbaa !18
  %30 = load ptr, ptr %2, align 8, !tbaa !11
  %31 = icmp ne ptr %29, %30
  br label %32

32:                                               ; preds = %26, %23
  %33 = phi i1 [ false, %23 ], [ %31, %26 ]
  br i1 %33, label %34, label %39

34:                                               ; preds = %32
  %35 = load ptr, ptr %3, align 8, !tbaa !14
  store ptr %35, ptr %4, align 8, !tbaa !14
  %36 = load ptr, ptr %3, align 8, !tbaa !14
  %37 = getelementptr inbounds nuw %struct.H5F_sfile_node_t, ptr %36, i32 0, i32 1
  %38 = load ptr, ptr %37, align 8, !tbaa !20
  store ptr %38, ptr %3, align 8, !tbaa !14
  br label %23, !llvm.loop !46

39:                                               ; preds = %32
  %40 = load ptr, ptr %3, align 8, !tbaa !14
  %41 = icmp eq ptr %40, null
  br i1 %41, label %42, label %61

42:                                               ; preds = %39
  br label %43

43:                                               ; preds = %42
  br label %44

44:                                               ; preds = %43
  br label %45

45:                                               ; preds = %44
  %46 = load i64, ptr @H5E_FILE_g, align 8, !tbaa !16
  %47 = load i64, ptr @H5E_NOTFOUND_g, align 8, !tbaa !16
  %48 = call i32 (ptr, ptr, i32, i64, i64, ptr, ...) @H5E_printf_stack(ptr noundef @.str, ptr noundef @__func__.H5F__sfile_remove, i32 noundef 186, i64 noundef %46, i64 noundef %47, ptr noundef @.str.2)
  br label %49

49:                                               ; preds = %45
  br label %50

50:                                               ; preds = %49
  store i8 1, ptr %6, align 1, !tbaa !7
  %51 = load i8, ptr %6, align 1, !tbaa !7, !range !9, !noundef !10
  %52 = trunc i8 %51 to i1
  %53 = zext i1 %52 to i8
  store i8 %53, ptr %6, align 1, !tbaa !7
  br label %54

54:                                               ; preds = %50
  br label %55

55:                                               ; preds = %54
  br label %56

56:                                               ; preds = %55
  store i32 -1, ptr %5, align 4, !tbaa !3
  br label %77

57:                                               ; No predecessors!
  br label %58

58:                                               ; preds = %57
  br label %59

59:                                               ; preds = %58
  br label %60

60:                                               ; preds = %59
  br label %61

61:                                               ; preds = %60, %39
  %62 = load ptr, ptr %4, align 8, !tbaa !14
  %63 = icmp ne ptr %62, null
  br i1 %63, label %64, label %70

64:                                               ; preds = %61
  %65 = load ptr, ptr %3, align 8, !tbaa !14
  %66 = getelementptr inbounds nuw %struct.H5F_sfile_node_t, ptr %65, i32 0, i32 1
  %67 = load ptr, ptr %66, align 8, !tbaa !20
  %68 = load ptr, ptr %4, align 8, !tbaa !14
  %69 = getelementptr inbounds nuw %struct.H5F_sfile_node_t, ptr %68, i32 0, i32 1
  store ptr %67, ptr %69, align 8, !tbaa !20
  br label %74

70:                                               ; preds = %61
  %71 = load ptr, ptr %3, align 8, !tbaa !14
  %72 = getelementptr inbounds nuw %struct.H5F_sfile_node_t, ptr %71, i32 0, i32 1
  %73 = load ptr, ptr %72, align 8, !tbaa !20
  store ptr %73, ptr @H5F_sfile_head_s, align 8, !tbaa !14
  br label %74

74:                                               ; preds = %70, %64
  %75 = load ptr, ptr %3, align 8, !tbaa !14
  %76 = call ptr @H5FL_reg_free(ptr noundef @H5_H5F_sfile_node_t_reg_free_list, ptr noundef %75)
  store ptr %76, ptr %3, align 8, !tbaa !14
  br label %77

77:                                               ; preds = %74, %56
  br label %78

78:                                               ; preds = %77, %13
  %79 = load i32, ptr %5, align 4, !tbaa !3
  call void @llvm.lifetime.end.p0(i64 1, ptr %6) #4
  call void @llvm.lifetime.end.p0(i64 4, ptr %5) #4
  call void @llvm.lifetime.end.p0(i64 8, ptr %4) #4
  call void @llvm.lifetime.end.p0(i64 8, ptr %3) #4
  ret i32 %79
}