; Function Attrs: nounwind uwtable
define range(i32 -1, 1) i32 @H5F__sfile_remove(ptr noundef readnone captures(address) %0) local_unnamed_addr #1 {
  %2 = load i8, ptr @H5F_init_g, align 1, !tbaa !3, !range !7, !noundef !8
  %3 = trunc nuw i8 %2 to i1
  %4 = load i8, ptr @H5_libterm_g, align 1, !range !7
  %5 = trunc nuw i8 %4 to i1
  %6 = xor i1 %5, true
  %7 = select i1 %3, i1 true, i1 %6
  br i1 %7, label %.preheader, label %21, !prof !9

.preheader:                                       ; preds = %1
  %.01318 = load ptr, ptr @H5F_sfile_head_s, align 8, !tbaa !17
  %cond19 = icmp eq ptr %.01318, null
  br i1 %cond19, label %._crit_edge, label %.lr.ph.preheader

.lr.ph.preheader:                                 ; preds = %.preheader
  %8 = load ptr, ptr %.01318, align 8, !tbaa !12
  %.not1428 = icmp eq ptr %8, %0
  br i1 %.not1428, label %.critedge, label %.lr.ph30

.lr.ph:                                           ; preds = %.lr.ph30
  %9 = load ptr, ptr %.013, align 8, !tbaa !12
  %.not14 = icmp eq ptr %9, %0
  br i1 %.not14, label %.critedge, label %.lr.ph30, !llvm.loop !45

.lr.ph30:                                         ; preds = %.lr.ph.preheader, %.lr.ph
  %.0132129 = phi ptr [ %.013, %.lr.ph ], [ %.01318, %.lr.ph.preheader ]
  %10 = getelementptr inbounds nuw i8, ptr %.0132129, i64 8
  %.013 = load ptr, ptr %10, align 8, !tbaa !17
  %cond = icmp eq ptr %.013, null
  br i1 %cond, label %._crit_edge, label %.lr.ph, !llvm.loop !45

._crit_edge:                                      ; preds = %.lr.ph30, %.preheader
  %11 = load i64, ptr @H5E_FILE_g, align 8, !tbaa !10
  %12 = load i64, ptr @H5E_NOTFOUND_g, align 8, !tbaa !10
  %13 = tail call i32 (ptr, ptr, i32, i64, i64, ptr, ...) @H5E_printf_stack(ptr noundef nonnull @.str, ptr noundef nonnull @__func__.H5F__sfile_remove, i32 noundef 186, i64 noundef %11, i64 noundef %12, ptr noundef nonnull @.str.2) #3
  br label %21

.critedge:                                        ; preds = %.lr.ph, %.lr.ph.preheader
  %.01321.lcssa = phi ptr [ %.01318, %.lr.ph.preheader ], [ %.013, %.lr.ph ]
  %.01220.lcssa = phi ptr [ null, %.lr.ph.preheader ], [ %.0132129, %.lr.ph ]
  %.not15 = icmp eq ptr %.01220.lcssa, null
  %14 = getelementptr inbounds nuw i8, ptr %.01321.lcssa, i64 8
  %15 = load ptr, ptr %14, align 8, !tbaa !18
  br i1 %.not15, label %18, label %16

16:                                               ; preds = %.critedge
  %17 = getelementptr inbounds nuw i8, ptr %.01220.lcssa, i64 8
  store ptr %15, ptr %17, align 8, !tbaa !18
  br label %19

18:                                               ; preds = %.critedge
  store ptr %15, ptr @H5F_sfile_head_s, align 8, !tbaa !17
  br label %19

19:                                               ; preds = %18, %16
  %20 = tail call ptr @H5FL_reg_free(ptr noundef nonnull @H5_H5F_sfile_node_t_reg_free_list, ptr noundef nonnull %.01321.lcssa) #3
  br label %21

21:                                               ; preds = %._crit_edge, %19, %1
  %.0 = phi i32 [ -1, %._crit_edge ], [ 0, %19 ], [ 0, %1 ]
  ret i32 %.0
}